; Function Attrs: mustprogress nounwind uwtable
define internal fastcc void @_ZL9parseSizeN4llvm9StringRefERjS0_(ptr dead_on_unwind noalias writable align 8 %0, ptr %1, i64 %2, ptr noundef nonnull writeonly align 4 captures(none) dereferenceable(4) %3, ptr %4, i64 %5) unnamed_addr #0 {
  %7 = alloca %"class.std::__cxx11::basic_string", align 8
  %8 = alloca i64, align 8
  %9 = alloca %"class.std::__cxx11::basic_string", align 8
  %10 = alloca %"class.llvm::Twine", align 8
  %11 = alloca %"class.llvm::Twine", align 8
  %12 = icmp eq i64 %2, 0
  br i1 %12, label %13, label %21

13:                                               ; preds = %6
  %14 = getelementptr inbounds nuw i8, ptr %10, i64 32
  store i8 5, ptr %14, align 8, !alias.scope !74
  %15 = getelementptr inbounds nuw i8, ptr %10, i64 33
  store i8 3, ptr %15, align 1, !alias.scope !74
  store ptr %4, ptr %10, align 8, !alias.scope !74
  %16 = getelementptr inbounds nuw i8, ptr %10, i64 8
  store i64 %5, ptr %16, align 8, !alias.scope !74
  %17 = getelementptr inbounds nuw i8, ptr %10, i64 16
  store ptr @.str.40, ptr %17, align 8, !alias.scope !74
  %18 = tail call { i32, ptr } @_ZN4llvm22inconvertibleErrorCodeEv() #19, !noalias !77
  %19 = extractvalue { i32, ptr } %18, 0
  %20 = extractvalue { i32, ptr } %18, 1
  call void @llvm.lifetime.start.p0(i64 32, ptr nonnull %9), !noalias !77
  call void @_ZNK4llvm5Twine3strB5cxx11Ev(ptr dead_on_unwind nonnull writable sret(%"class.std::__cxx11::basic_string") align 8 %9, ptr noundef nonnull align 8 dereferenceable(34) %10) #19, !noalias !80
  call void @_ZN4llvm17createStringErrorEONSt7__cxx1112basic_stringIcSt11char_traitsIcESaIcEEESt10error_code(ptr dead_on_unwind writable sret(%"class.llvm::Error") align 8 %0, ptr noundef nonnull align 8 dereferenceable(32) %9, i32 %19, ptr %20) #19
  call void @_ZNSt7__cxx1112basic_stringIcSt11char_traitsIcESaIcEED1Ev(ptr noundef nonnull align 8 dereferenceable(32) %9) #19
  call void @llvm.lifetime.end.p0(i64 32, ptr nonnull %9), !noalias !77
  br label %36

21:                                               ; preds = %6
  call void @llvm.lifetime.start.p0(i64 8, ptr nonnull %8)
  %22 = call noundef zeroext i1 @_ZN4llvm20getAsUnsignedIntegerENS_9StringRefEjRy(ptr %1, i64 %2, i32 noundef 10, ptr noundef nonnull align 8 dereferenceable(8) %8) #19
  br i1 %22, label %_ZN4llvm10to_integerIjEEbNS_9StringRefERT_j.exit.thread, label %23

23:                                               ; preds = %21
  %24 = load i64, ptr %8, align 8
  %.not.i.i = icmp ult i64 %24, 4294967296
  br i1 %.not.i.i, label %25, label %_ZN4llvm10to_integerIjEEbNS_9StringRefERT_j.exit.thread

_ZN4llvm10to_integerIjEEbNS_9StringRefERT_j.exit.thread: ; preds = %23, %21
  call void @llvm.lifetime.end.p0(i64 8, ptr nonnull %8)
  br label %28

25:                                               ; preds = %23
  %26 = trunc nuw i64 %24 to i32
  store i32 %26, ptr %3, align 4
  call void @llvm.lifetime.end.p0(i64 8, ptr nonnull %8)
  %27 = add nsw i64 %24, -1
  %or.cond = icmp ult i64 %27, 16777215
  br i1 %or.cond, label %_ZN4llvm12ErrorSuccessD2Ev.exit, label %28

28:                                               ; preds = %_ZN4llvm10to_integerIjEEbNS_9StringRefERT_j.exit.thread, %25
  %29 = getelementptr inbounds nuw i8, ptr %11, i64 32
  store i8 5, ptr %29, align 8, !alias.scope !83
  %30 = getelementptr inbounds nuw i8, ptr %11, i64 33
  store i8 3, ptr %30, align 1, !alias.scope !83
  store ptr %4, ptr %11, align 8, !alias.scope !83
  %31 = getelementptr inbounds nuw i8, ptr %11, i64 8
  store i64 %5, ptr %31, align 8, !alias.scope !83
  %32 = getelementptr inbounds nuw i8, ptr %11, i64 16
  store ptr @.str.41, ptr %32, align 8, !alias.scope !83
  %33 = call { i32, ptr } @_ZN4llvm22inconvertibleErrorCodeEv() #19, !noalias !86
  %34 = extractvalue { i32, ptr } %33, 0
  %35 = extractvalue { i32, ptr } %33, 1
  call void @llvm.lifetime.start.p0(i64 32, ptr nonnull %7), !noalias !86
  call void @_ZNK4llvm5Twine3strB5cxx11Ev(ptr dead_on_unwind nonnull writable sret(%"class.std::__cxx11::basic_string") align 8 %7, ptr noundef nonnull align 8 dereferenceable(34) %11) #19, !noalias !89
  call void @_ZN4llvm17createStringErrorEONSt7__cxx1112basic_stringIcSt11char_traitsIcESaIcEEESt10error_code(ptr dead_on_unwind writable sret(%"class.llvm::Error") align 8 %0, ptr noundef nonnull align 8 dereferenceable(32) %7, i32 %34, ptr %35) #19
  call void @_ZNSt7__cxx1112basic_stringIcSt11char_traitsIcESaIcEED1Ev(ptr noundef nonnull align 8 dereferenceable(32) %7) #19
  call void @llvm.lifetime.end.p0(i64 32, ptr nonnull %7), !noalias !86
  br label %36

_ZN4llvm12ErrorSuccessD2Ev.exit:                  ; preds = %25
  store ptr null, ptr %0, align 8
  br label %36

36:                                               ; preds = %_ZN4llvm12ErrorSuccessD2Ev.exit, %28, %13
  ret void
}